target datalayout = "e-m:e-p270:32:32-p271:32:32-p272:64:64-i64:64-i128:128-f80:128-n8:16:32:64-S128"
target triple = "x86_64-pc-linux-gnu"

%"class.vcg::ply::PropDescriptor" = type <{ %"class.std::__cxx11::basic_string", %"class.std::__cxx11::basic_string", i32, i32, i64, i8, i8, [2 x i8], i32, i32, [4 x i8], i64, i32, [4 x i8] }>
%"class.std::__cxx11::basic_string" = type { %"struct.std::__cxx11::basic_string<char>::_Alloc_hider", i64, %union.anon.33 }
%"struct.std::__cxx11::basic_string<char>::_Alloc_hider" = type { ptr }
%union.anon.33 = type { i64, [8 x i8] }

@_ZZN3vcg3tri2io11ImporterPLYI6CMeshOE8VertDescEiE2pv = linkonce_odr global [34 x %"class.vcg::ply::PropDescriptor"] zeroinitializer, comdat, align 16

; Function Attrs: mustprogress nounwind uwtable
define linkonce_odr void @_ZN3vcg3ply14PropDescriptorD2Ev(ptr noundef nonnull align 8 dereferenceable(108) %0) unnamed_addr #4 comdat align 2 {
  %2 = alloca ptr, align 8
  store ptr %0, ptr %2, align 8
  %3 = load ptr, ptr %2, align 8
  %4 = getelementptr inbounds %"class.vcg::ply::PropDescriptor", ptr %3, i32 0, i32 1
  call void @_ZNSt7__cxx1112basic_stringIcSt11char_traitsIcESaIcEED1Ev(ptr noundef nonnull align 8 dereferenceable(32) %4) #3
  %5 = getelementptr inbounds %"class.vcg::ply::PropDescriptor", ptr %3, i32 0, i32 0
  call void @_ZNSt7__cxx1112basic_stringIcSt11char_traitsIcESaIcEED1Ev(ptr noundef nonnull align 8 dereferenceable(32) %5) #3
  ret void
}

; Function Attrs: uwtable
define internal void @__cxx_global_array_dtor(ptr noundef %0) #0 section ".text.startup" {
  %2 = alloca ptr, align 8
  store ptr %0, ptr %2, align 8
  br label %3

3:                                                ; preds = %3, %1
  %4 = phi ptr [ getelementptr inbounds (%"class.vcg::ply::PropDescriptor", ptr @_ZZN3vcg3tri2io11ImporterPLYI6CMeshOE8VertDescEiE2pv, i64 34), %1 ], [ %5, %3 ]
  %5 = getelementptr inbounds %"class.vcg::ply::PropDescriptor", ptr %4, i64 -1
  call void @_ZN3vcg3ply14PropDescriptorD2Ev(ptr noundef nonnull align 8 dereferenceable(108) %5) #3
  %6 = icmp eq ptr %5, @_ZZN3vcg3tri2io11ImporterPLYI6CMeshOE8VertDescEiE2pv
  br i1 %6, label %7, label %3

7:                                                ; preds = %3
  ret void
}